/* Generated by gensyscalls.py. Do not edit. */

#include "private/bionic_asm.h"

ENTRY_PRIVATE(___close)
    pushl   %ebx
    .cfi_def_cfa_offset 8
    .cfi_rel_offset ebx, 0

    call    __dxkernel_syscall
    pushl   %eax
    .cfi_adjust_cfa_offset 4
    .cfi_rel_offset eax, 0

    mov     12(%esp), %ebx
    movl    $__NR_close, %eax
    call    *(%esp)
    addl    $4, %esp

    cmpl    $-MAX_ERRNO, %eax
    jb      1f
    negl    %eax
    pushl   %eax
    call    ___set_errno_internal
    addl    $4, %esp
1:
    popl    %ebx
    ret
END(___close)

ENTRY_PRIVATE(_lseek)
    pushl   %ebx
    .cfi_def_cfa_offset 8
    .cfi_rel_offset ebx, 0
    pushl   %ecx
    .cfi_adjust_cfa_offset 4
    .cfi_rel_offset ecx, 0
    pushl   %edx
    .cfi_adjust_cfa_offset 4
    .cfi_rel_offset edx, 0

    call    __dxkernel_syscall
    pushl   %eax
    .cfi_adjust_cfa_offset 4
    .cfi_rel_offset eax, 0

    mov     20(%esp), %ebx
    mov     24(%esp), %ecx
    mov     28(%esp), %edx
    movl    $__NR_lseek, %eax
    call    *(%esp)
    addl    $4, %esp

    cmpl    $-MAX_ERRNO, %eax
    jb      1f
    negl    %eax
    pushl   %eax
    call    ___set_errno_internal
    addl    $4, %esp
1:
    popl    %edx
    popl    %ecx
    popl    %ebx
    ret
END(_lseek)

ENTRY_PRIVATE(__dxopenat)
    pushl   %ebx
    .cfi_def_cfa_offset 8
    .cfi_rel_offset ebx, 0
    pushl   %ecx
    .cfi_adjust_cfa_offset 4
    .cfi_rel_offset ecx, 0
    pushl   %edx
    .cfi_adjust_cfa_offset 4
    .cfi_rel_offset edx, 0
    pushl   %esi
    .cfi_adjust_cfa_offset 4
    .cfi_rel_offset esi, 0

    call    __dxkernel_syscall
    pushl   %eax
    .cfi_adjust_cfa_offset 4
    .cfi_rel_offset eax, 0

    mov     24(%esp), %ebx
    mov     28(%esp), %ecx
    mov     32(%esp), %edx
    mov     36(%esp), %esi
    movl    $__NR_openat, %eax
    call    *(%esp)
    addl    $4, %esp

    cmpl    $-MAX_ERRNO, %eax
    jb      1f
    negl    %eax
    pushl   %eax
    call    ___set_errno_internal
    addl    $4, %esp
1:
    popl    %esi
    popl    %edx
    popl    %ecx
    popl    %ebx
    ret
END(__dxopenat)

ENTRY_PRIVATE(_read)
    pushl   %ebx
    .cfi_def_cfa_offset 8
    .cfi_rel_offset ebx, 0
    pushl   %ecx
    .cfi_adjust_cfa_offset 4
    .cfi_rel_offset ecx, 0
    pushl   %edx
    .cfi_adjust_cfa_offset 4
    .cfi_rel_offset edx, 0

    call    __dxkernel_syscall
    pushl   %eax
    .cfi_adjust_cfa_offset 4
    .cfi_rel_offset eax, 0

    mov     20(%esp), %ebx
    mov     24(%esp), %ecx
    mov     28(%esp), %edx
    movl    $__NR_read, %eax
    call    *(%esp)
    addl    $4, %esp

    cmpl    $-MAX_ERRNO, %eax
    jb      1f
    negl    %eax
    pushl   %eax
    call    ___set_errno_internal
    addl    $4, %esp
1:
    popl    %edx
    popl    %ecx
    popl    %ebx
    ret
END(_read)

ENTRY_PRIVATE(_write)
    pushl   %ebx
    .cfi_def_cfa_offset 8
    .cfi_rel_offset ebx, 0
    pushl   %ecx
    .cfi_adjust_cfa_offset 4
    .cfi_rel_offset ecx, 0
    pushl   %edx
    .cfi_adjust_cfa_offset 4
    .cfi_rel_offset edx, 0

    call    __dxkernel_syscall
    pushl   %eax
    .cfi_adjust_cfa_offset 4
    .cfi_rel_offset eax, 0

    mov     20(%esp), %ebx
    mov     24(%esp), %ecx
    mov     28(%esp), %edx
    movl    $__NR_write, %eax
    call    *(%esp)
    addl    $4, %esp

    cmpl    $-MAX_ERRNO, %eax
    jb      1f
    negl    %eax
    pushl   %eax
    call    ___set_errno_internal
    addl    $4, %esp
1:
    popl    %edx
    popl    %ecx
    popl    %ebx
    ret
END(_write)

ENTRY_PRIVATE(_ptrace)
    pushl   %ebx
    .cfi_def_cfa_offset 8
    .cfi_rel_offset ebx, 0
    pushl   %ecx
    .cfi_adjust_cfa_offset 4
    .cfi_rel_offset ecx, 0
    pushl   %edx
    .cfi_adjust_cfa_offset 4
    .cfi_rel_offset edx, 0

    call    __kernel_syscall
    pushl   %eax
    .cfi_adjust_cfa_offset 4
    .cfi_rel_offset eax, 0

    mov     20(%esp), %ebx
    mov     24(%esp), %ecx
    mov     28(%esp), %edx
    movl    $__NR_ptrace, %eax
    call    *(%esp)
    addl    $4, %esp

    cmpl    $-MAX_ERRNO, %eax
    jb      1f
    negl    %eax
    pushl   %eax
    call    ___set_errno_internal
    addl    $4, %esp
1:
    popl    %edx
    popl    %ecx
    popl    %ebx
    ret
END(_write)
